target datalayout = "e-m:e-p270:32:32-p271:32:32-p272:64:64-i64:64-i128:128-f80:128-n8:16:32:64-S128"
target triple = "x86_64-pc-linux-gnu"

%struct.PlatformTarget = type { ptr, i32, ptr, ptr, i32, i32, i32, i32, i32, i32, i32, [7 x %struct.AlignData], [7 x %struct.AlignData], [7 x %struct.AlignData], i32, i16, %union.anon.88, i8, i8, i8, i8, i8, i8, i8, i8, i8, i8, %struct.AlignData, i32, i32, i32, i32, i32, i32, i32, i32, i32, i32, i32, i32, i32, i32, i32, i32, ptr }
%union.anon.88 = type { %struct.anon.90 }
%struct.anon.90 = type { %struct.X86Features, i32, i32 }
%struct.X86Features = type { [2 x i64], ptr }
%struct.AlignData = type { i32, i32 }
%struct.Type_ = type { i32, ptr, ptr, ptr, %union.anon.85, ptr, ptr, %union.anon.87 }
%union.anon.85 = type { ptr }
%union.anon.87 = type { %struct.TypeFunction }
%struct.TypeFunction = type { ptr, ptr, ptr }
%struct.AbiType = type { %union.anon.1 }
%union.anon.1 = type { ptr }

@platform_target = external global %struct.PlatformTarget, align 8
@.str = private unnamed_addr constant [36 x i8] c"FATAL ERROR %s -> in %s @ in %s:%d \00", align 1
@.str.1 = private unnamed_addr constant [22 x i8] c"Should be unreachable\00", align 1
@.str.2 = private unnamed_addr constant [114 x i8] c"generated/home/dtcxzyw/WorkSpace/Projects/compilers/llvm-opt-benchmark/bench/c3c/c3c/src/compiler/abi/c_abi_x64.c\00", align 1
@__func__.x64_classify_return = private unnamed_addr constant [20 x i8] c"x64_classify_return\00", align 1

; Function Attrs: nounwind uwtable
define internal i32 @aligned_offset(i32 noundef %0, i32 noundef %1) #0 {
  %3 = alloca i32, align 4
  %4 = alloca i32, align 4
  store i32 %0, ptr %3, align 4
  store i32 %1, ptr %4, align 4
  %5 = load i32, ptr %3, align 4
  %6 = load i32, ptr %4, align 4
  %7 = add i32 %5, %6
  %8 = sub i32 %7, 1
  %9 = load i32, ptr %4, align 4
  %10 = udiv i32 %8, %9
  %11 = load i32, ptr %4, align 4
  %12 = mul i32 %10, %11
  ret i32 %12
}

; Function Attrs: nounwind uwtable
define internal zeroext i1 @abi_type_is_type(ptr %0) #0 {
  %2 = alloca %struct.AbiType, align 8
  %3 = getelementptr inbounds %struct.AbiType, ptr %2, i32 0, i32 0
  %4 = getelementptr inbounds %union.anon.1, ptr %3, i32 0, i32 0
  store ptr %0, ptr %4, align 8
  %5 = getelementptr inbounds %struct.AbiType, ptr %2, i32 0, i32 0
  %6 = load i64, ptr %5, align 8
  %7 = and i64 %6, 1
  %8 = icmp ne i64 %7, 0
  %9 = xor i1 %8, true
  ret i1 %9
}

; Function Attrs: nounwind uwtable
define internal ptr @x64_get_argument_pair_return(ptr %0, ptr %1) #0 {
  %3 = alloca %struct.AbiType, align 8
  %4 = alloca %struct.AbiType, align 8
  %5 = alloca i32, align 4
  %6 = alloca i32, align 4
  %7 = getelementptr inbounds %struct.AbiType, ptr %3, i32 0, i32 0
  %8 = getelementptr inbounds %union.anon.1, ptr %7, i32 0, i32 0
  store ptr %0, ptr %8, align 8
  %9 = getelementptr inbounds %struct.AbiType, ptr %4, i32 0, i32 0
  %10 = getelementptr inbounds %union.anon.1, ptr %9, i32 0, i32 0
  store ptr %1, ptr %10, align 8
  %11 = getelementptr inbounds %struct.AbiType, ptr %3, i32 0, i32 0
  %12 = getelementptr inbounds %union.anon.1, ptr %11, i32 0, i32 0
  %13 = load ptr, ptr %12, align 8
  %14 = call i32 @abi_type_size(ptr %13)
  store i32 %14, ptr %5, align 4
  %15 = load i32, ptr %5, align 4
  %16 = getelementptr inbounds %struct.AbiType, ptr %4, i32 0, i32 0
  %17 = getelementptr inbounds %union.anon.1, ptr %16, i32 0, i32 0
  %18 = load ptr, ptr %17, align 8
  %19 = call i32 @abi_type_abi_alignment(ptr %18)
  %20 = call i32 @aligned_offset(i32 noundef %15, i32 noundef %19)
  store i32 %20, ptr %6, align 4
  %21 = getelementptr inbounds %struct.AbiType, ptr %3, i32 0, i32 0
  %22 = getelementptr inbounds %union.anon.1, ptr %21, i32 0, i32 0
  %23 = load ptr, ptr %22, align 8
  %24 = getelementptr inbounds %struct.AbiType, ptr %4, i32 0, i32 0
  %25 = getelementptr inbounds %union.anon.1, ptr %24, i32 0, i32 0
  %26 = load ptr, ptr %25, align 8
  %27 = call ptr @abi_arg_new_direct_pair(ptr %23, ptr %26)
  ret ptr %27
}

; Function Attrs: nounwind uwtable
define internal zeroext i1 @abi_type_is_valid(ptr %0) #0 {
  %2 = alloca %struct.AbiType, align 8
  %3 = getelementptr inbounds %struct.AbiType, ptr %2, i32 0, i32 0
  %4 = getelementptr inbounds %union.anon.1, ptr %3, i32 0, i32 0
  store ptr %0, ptr %4, align 8
  %5 = getelementptr inbounds %struct.AbiType, ptr %2, i32 0, i32 0
  %6 = load i64, ptr %5, align 8
  %7 = icmp ne i64 %6, 0
  ret i1 %7
}

; Function Attrs: nounwind uwtable
define internal ptr @abi_type_get(ptr noundef %0) #0 {
  %2 = alloca %struct.AbiType, align 8
  %3 = alloca ptr, align 8
  store ptr %0, ptr %3, align 8
  %4 = getelementptr inbounds %struct.AbiType, ptr %2, i32 0, i32 0
  %5 = load ptr, ptr %3, align 8
  store ptr %5, ptr %4, align 8
  %6 = getelementptr inbounds %struct.AbiType, ptr %2, i32 0, i32 0
  %7 = getelementptr inbounds %union.anon.1, ptr %6, i32 0, i32 0
  %8 = load ptr, ptr %7, align 8
  ret ptr %8
}

; Function Attrs: nounwind uwtable
define dso_local ptr @x64_indirect_return_result(ptr noundef %0) #0 {
  %2 = alloca ptr, align 8
  %3 = alloca i32, align 4
  %4 = alloca ptr, align 8
  %5 = alloca ptr, align 8
  %6 = alloca ptr, align 8
  store ptr %0, ptr %6, align 8
  %7 = load ptr, ptr %6, align 8
  %8 = call zeroext i1 @type_is_abi_aggregate(ptr noundef %7)
  br i1 %8, label %9, label %12

9:                                                ; preds = %1
  %10 = load ptr, ptr %6, align 8
  %11 = call ptr @abi_arg_new_indirect_not_by_val(ptr noundef %10)
  store ptr %11, ptr %5, align 8
  br label %48

12:                                               ; preds = %1
  %13 = load ptr, ptr %6, align 8
  %14 = call ptr @type_lowering(ptr noundef %13)
  store ptr %14, ptr %6, align 8
  %15 = load ptr, ptr %6, align 8
  store ptr %15, ptr %4, align 8
  %16 = load ptr, ptr %4, align 8
  store ptr %16, ptr %2, align 8
  %17 = load ptr, ptr %2, align 8
  %18 = load i32, ptr %17, align 8
  store i32 %18, ptr %3, align 4
  %19 = load i32, ptr %3, align 4
  %20 = icmp eq i32 %19, 31
  br i1 %20, label %21, label %26

21:                                               ; preds = %12
  %22 = load ptr, ptr %2, align 8
  %23 = getelementptr inbounds %struct.Type_, ptr %22, i32 0, i32 1
  %24 = load ptr, ptr %23, align 8
  %25 = load i32, ptr %24, align 8
  store i32 %25, ptr %3, align 4
  br label %26

26:                                               ; preds = %21, %12
  %27 = load i32, ptr %3, align 4
  %28 = icmp uge i32 %27, 2
  br i1 %28, label %29, label %32

29:                                               ; preds = %26
  %30 = load i32, ptr %3, align 4
  %31 = icmp ule i32 %30, 12
  br label %32

32:                                               ; preds = %29, %26
  %33 = phi i1 [ false, %26 ], [ %31, %29 ]
  br i1 %33, label %34, label %41

34:                                               ; preds = %32
  %35 = load ptr, ptr %4, align 8
  %36 = getelementptr inbounds %struct.Type_, ptr %35, i32 0, i32 7
  %37 = load i32, ptr %36, align 8
  %38 = and i32 %37, 255
  %39 = load i32, ptr getelementptr inbounds (%struct.PlatformTarget, ptr @platform_target, i32 0, i32 33), align 8
  %40 = icmp ult i32 %38, %39
  br label %41

41:                                               ; preds = %34, %32
  %42 = phi i1 [ false, %32 ], [ %40, %34 ]
  br i1 %42, label %43, label %46

43:                                               ; preds = %41
  %44 = load ptr, ptr %6, align 8
  %45 = call ptr @abi_arg_new_direct_int_ext(ptr noundef %44)
  store ptr %45, ptr %5, align 8
  br label %48

46:                                               ; preds = %41
  %47 = call ptr @abi_arg_new_direct()
  store ptr %47, ptr %5, align 8
  br label %48

48:                                               ; preds = %46, %43, %9
  %49 = load ptr, ptr %5, align 8
  ret ptr %49
}

; Function Attrs: nounwind uwtable
define dso_local ptr @x64_classify_return(ptr noundef %0) #0 {
  %2 = alloca ptr, align 8
  %3 = alloca i32, align 4
  %4 = alloca ptr, align 8
  %5 = alloca ptr, align 8
  %6 = alloca ptr, align 8
  %7 = alloca i32, align 4
  %8 = alloca i32, align 4
  %9 = alloca %struct.AbiType, align 8
  %10 = alloca %struct.AbiType, align 8
  %11 = alloca %struct.AbiType, align 8
  %12 = alloca %struct.AbiType, align 8
  %13 = alloca %struct.AbiType, align 8
  %14 = alloca %struct.AbiType, align 8
  %15 = alloca %struct.AbiType, align 8
  store ptr %0, ptr %6, align 8
  %16 = load ptr, ptr %6, align 8
  call void @x64_classify(ptr noundef %16, i64 noundef 0, ptr noundef %8, ptr noundef %7, i32 noundef 1)
  call void @llvm.memset.p0.i64(ptr align 8 %9, i8 0, i64 8, i1 false)
  %17 = load i32, ptr %8, align 4
  switch i32 %17, label %78 [
    i32 0, label %18
    i32 4, label %24
    i32 1, label %27
    i32 2, label %30
    i32 3, label %71
  ]

18:                                               ; preds = %1
  %19 = load i32, ptr %7, align 4
  %20 = icmp eq i32 %19, 0
  br i1 %20, label %21, label %23

21:                                               ; preds = %18
  %22 = call ptr @abi_arg_ignore()
  store ptr %22, ptr %5, align 8
  br label %139

23:                                               ; preds = %18
  br label %81

24:                                               ; preds = %1
  br label %25

25:                                               ; preds = %24
  call void (ptr, ...) @error_exit(ptr noundef @.str, ptr noundef @.str.1, ptr noundef @__func__.x64_classify_return, ptr noundef @.str.2, i32 noundef 697) #5
  unreachable

26:                                               ; No predecessors!
  br label %27

27:                                               ; preds = %26, %1
  %28 = load ptr, ptr %6, align 8
  %29 = call ptr @x64_indirect_return_result(ptr noundef %28)
  store ptr %29, ptr %5, align 8
  br label %139

30:                                               ; preds = %1
  %31 = load ptr, ptr %6, align 8
  %32 = load ptr, ptr %6, align 8
  %33 = call ptr @x64_get_int_type_at_offset(ptr noundef %31, i32 noundef 0, ptr noundef %32, i32 noundef 0)
  %34 = getelementptr inbounds %struct.AbiType, ptr %10, i32 0, i32 0
  %35 = getelementptr inbounds %union.anon.1, ptr %34, i32 0, i32 0
  store ptr %33, ptr %35, align 8
  call void @llvm.memcpy.p0.p0.i64(ptr align 8 %9, ptr align 8 %10, i64 8, i1 false)
  %36 = load i32, ptr %7, align 4
  %37 = icmp eq i32 %36, 0
  br i1 %37, label %38, label %70

38:                                               ; preds = %30
  %39 = load ptr, ptr %6, align 8
  store ptr %39, ptr %4, align 8
  %40 = load ptr, ptr %4, align 8
  store ptr %40, ptr %2, align 8
  %41 = load ptr, ptr %2, align 8
  %42 = load i32, ptr %41, align 8
  store i32 %42, ptr %3, align 4
  %43 = load i32, ptr %3, align 4
  %44 = icmp eq i32 %43, 31
  br i1 %44, label %45, label %50

45:                                               ; preds = %38
  %46 = load ptr, ptr %2, align 8
  %47 = getelementptr inbounds %struct.Type_, ptr %46, i32 0, i32 1
  %48 = load ptr, ptr %47, align 8
  %49 = load i32, ptr %48, align 8
  store i32 %49, ptr %3, align 4
  br label %50

50:                                               ; preds = %45, %38
  %51 = load i32, ptr %3, align 4
  %52 = icmp uge i32 %51, 2
  br i1 %52, label %53, label %56

53:                                               ; preds = %50
  %54 = load i32, ptr %3, align 4
  %55 = icmp ule i32 %54, 12
  br label %56

56:                                               ; preds = %53, %50
  %57 = phi i1 [ false, %50 ], [ %55, %53 ]
  br i1 %57, label %58, label %65

58:                                               ; preds = %56
  %59 = load ptr, ptr %4, align 8
  %60 = getelementptr inbounds %struct.Type_, ptr %59, i32 0, i32 7
  %61 = load i32, ptr %60, align 8
  %62 = and i32 %61, 255
  %63 = load i32, ptr getelementptr inbounds (%struct.PlatformTarget, ptr @platform_target, i32 0, i32 33), align 8
  %64 = icmp ult i32 %62, %63
  br label %65

65:                                               ; preds = %58, %56
  %66 = phi i1 [ false, %56 ], [ %64, %58 ]
  br i1 %66, label %67, label %70

67:                                               ; preds = %65
  %68 = load ptr, ptr %6, align 8
  %69 = call ptr @abi_arg_new_direct_coerce_int_ext(ptr noundef %68)
  store ptr %69, ptr %5, align 8
  br label %139

70:                                               ; preds = %65, %30
  br label %81

71:                                               ; preds = %1
  %72 = load ptr, ptr %6, align 8
  %73 = load ptr, ptr %6, align 8
  %74 = call ptr @x64_get_sse_type_at_offset(ptr noundef %72, i32 noundef 0, ptr noundef %73, i32 noundef 0)
  %75 = call ptr @abi_type_get(ptr noundef %74)
  %76 = getelementptr inbounds %struct.AbiType, ptr %11, i32 0, i32 0
  %77 = getelementptr inbounds %union.anon.1, ptr %76, i32 0, i32 0
  store ptr %75, ptr %77, align 8
  call void @llvm.memcpy.p0.p0.i64(ptr align 8 %9, ptr align 8 %11, i64 8, i1 false)
  br label %81

78:                                               ; preds = %1
  br label %79

79:                                               ; preds = %78
  call void (ptr, ...) @error_exit(ptr noundef @.str, ptr noundef @.str.1, ptr noundef @__func__.x64_classify_return, ptr noundef @.str.2, i32 noundef 715) #5
  unreachable

80:                                               ; No predecessors!
  br label %81

81:                                               ; preds = %80, %71, %70, %23
  call void @llvm.memset.p0.i64(ptr align 8 %12, i8 0, i64 8, i1 false)
  %82 = load i32, ptr %7, align 4
  switch i32 %82, label %102 [
    i32 1, label %83
    i32 0, label %83
    i32 2, label %84
    i32 3, label %90
    i32 4, label %97
  ]

83:                                               ; preds = %81, %81
  br label %102

84:                                               ; preds = %81
  %85 = load ptr, ptr %6, align 8
  %86 = load ptr, ptr %6, align 8
  %87 = call ptr @x64_get_int_type_at_offset(ptr noundef %85, i32 noundef 8, ptr noundef %86, i32 noundef 8)
  %88 = getelementptr inbounds %struct.AbiType, ptr %13, i32 0, i32 0
  %89 = getelementptr inbounds %union.anon.1, ptr %88, i32 0, i32 0
  store ptr %87, ptr %89, align 8
  call void @llvm.memcpy.p0.p0.i64(ptr align 8 %12, ptr align 8 %13, i64 8, i1 false)
  br label %102

90:                                               ; preds = %81
  %91 = load ptr, ptr %6, align 8
  %92 = load ptr, ptr %6, align 8
  %93 = call ptr @x64_get_sse_type_at_offset(ptr noundef %91, i32 noundef 8, ptr noundef %92, i32 noundef 8)
  %94 = call ptr @abi_type_get(ptr noundef %93)
  %95 = getelementptr inbounds %struct.AbiType, ptr %14, i32 0, i32 0
  %96 = getelementptr inbounds %union.anon.1, ptr %95, i32 0, i32 0
  store ptr %94, ptr %96, align 8
  call void @llvm.memcpy.p0.p0.i64(ptr align 8 %12, ptr align 8 %14, i64 8, i1 false)
  br label %102

97:                                               ; preds = %81
  %98 = load ptr, ptr %6, align 8
  %99 = call ptr @x64_get_byte_vector_type(ptr noundef %98)
  %100 = getelementptr inbounds %struct.AbiType, ptr %15, i32 0, i32 0
  %101 = getelementptr inbounds %union.anon.1, ptr %100, i32 0, i32 0
  store ptr %99, ptr %101, align 8
  call void @llvm.memcpy.p0.p0.i64(ptr align 8 %9, ptr align 8 %15, i64 8, i1 false)
  br label %102

102:                                              ; preds = %97, %90, %84, %83, %81
  %103 = getelementptr inbounds %struct.AbiType, ptr %12, i32 0, i32 0
  %104 = getelementptr inbounds %union.anon.1, ptr %103, i32 0, i32 0
  %105 = load ptr, ptr %104, align 8
  %106 = call zeroext i1 @abi_type_is_valid(ptr %105)
  br i1 %106, label %107, label %115

107:                                              ; preds = %102
  %108 = getelementptr inbounds %struct.AbiType, ptr %9, i32 0, i32 0
  %109 = getelementptr inbounds %union.anon.1, ptr %108, i32 0, i32 0
  %110 = load ptr, ptr %109, align 8
  %111 = getelementptr inbounds %struct.AbiType, ptr %12, i32 0, i32 0
  %112 = getelementptr inbounds %union.anon.1, ptr %111, i32 0, i32 0
  %113 = load ptr, ptr %112, align 8
  %114 = call ptr @x64_get_argument_pair_return(ptr %110, ptr %113)
  store ptr %114, ptr %5, align 8
  br label %139

115:                                              ; preds = %102
  %116 = getelementptr inbounds %struct.AbiType, ptr %9, i32 0, i32 0
  %117 = getelementptr inbounds %union.anon.1, ptr %116, i32 0, i32 0
  %118 = load ptr, ptr %117, align 8
  %119 = call zeroext i1 @abi_type_is_type(ptr %118)
  br i1 %119, label %120, label %137

120:                                              ; preds = %115
  %121 = load ptr, ptr %6, align 8
  %122 = getelementptr inbounds %struct.Type_, ptr %121, i32 0, i32 1
  %123 = load ptr, ptr %122, align 8
  %124 = getelementptr inbounds %struct.AbiType, ptr %9, i32 0, i32 0
  %125 = load ptr, ptr %124, align 8
  %126 = getelementptr inbounds %struct.Type_, ptr %125, i32 0, i32 1
  %127 = load ptr, ptr %126, align 8
  %128 = icmp eq ptr %123, %127
  br i1 %128, label %129, label %131

129:                                              ; preds = %120
  %130 = call ptr @abi_arg_new_direct()
  store ptr %130, ptr %5, align 8
  br label %139

131:                                              ; preds = %120
  %132 = getelementptr inbounds %struct.AbiType, ptr %9, i32 0, i32 0
  %133 = load ptr, ptr %132, align 8
  %134 = getelementptr inbounds %struct.Type_, ptr %133, i32 0, i32 1
  %135 = load ptr, ptr %134, align 8
  %136 = call ptr @abi_arg_new_direct_coerce_type(ptr noundef %135)
  store ptr %136, ptr %5, align 8
  br label %139

137:                                              ; preds = %115
  %138 = call ptr @abi_arg_new_direct_coerce_int()
  store ptr %138, ptr %5, align 8
  br label %139

139:                                              ; preds = %137, %131, %129, %107, %67, %27, %21
  %140 = load ptr, ptr %5, align 8
  ret ptr %140
}