; Function Attrs: nounwind uwtable
define dso_local ptr @x64_classify_return(ptr noundef %0) local_unnamed_addr #1 {
  %2 = alloca i32, align 4
  %3 = alloca i32, align 4
  call fastcc void @x64_classify(ptr noundef %0, i64 noundef 0, ptr noundef nonnull %3, ptr noundef nonnull %2, i32 noundef 1)
  %4 = load i32, ptr %3, align 4
  switch i32 %4, label %59 [
    i32 0, label %5
    i32 4, label %10
    i32 1, label %11
    i32 2, label %35
    i32 3, label %57
  ]

5:                                                ; preds = %1
  %6 = load i32, ptr %2, align 4
  %7 = icmp eq i32 %6, 0
  br i1 %7, label %8, label %.critedge

8:                                                ; preds = %5
  %9 = tail call ptr @abi_arg_ignore() #7
  br label %x64_indirect_return_result.exit

10:                                               ; preds = %1
  tail call void (ptr, ...) @error_exit(ptr noundef nonnull @.str, ptr noundef nonnull @.str.1, ptr noundef nonnull @__func__.x64_classify_return, ptr noundef nonnull @.str.2, i32 noundef 697) #8
  unreachable

11:                                               ; preds = %1
  %12 = tail call zeroext i1 @type_is_abi_aggregate(ptr noundef %0) #7
  br i1 %12, label %13, label %15

13:                                               ; preds = %11
  %14 = tail call ptr @abi_arg_new_indirect_not_by_val(ptr noundef %0) #7
  br label %x64_indirect_return_result.exit

15:                                               ; preds = %11
  %16 = tail call fastcc ptr @type_lowering(ptr noundef %0)
  %17 = load i32, ptr %16, align 8
  %18 = icmp eq i32 %17, 31
  br i1 %18, label %19, label %23

19:                                               ; preds = %15
  %20 = getelementptr inbounds i8, ptr %16, i64 8
  %21 = load ptr, ptr %20, align 8
  %22 = load i32, ptr %21, align 8
  br label %23

23:                                               ; preds = %19, %15
  %.012.i = phi i32 [ %22, %19 ], [ %17, %15 ]
  %24 = add i32 %.012.i, -2
  %25 = icmp ult i32 %24, 11
  br i1 %25, label %26, label %.critedge.i

26:                                               ; preds = %23
  %27 = getelementptr inbounds i8, ptr %16, i64 56
  %28 = load i32, ptr %27, align 8
  %29 = and i32 %28, 255
  %30 = load i32, ptr getelementptr inbounds (%struct.PlatformTarget, ptr @platform_target, i64 0, i32 33), align 8
  %31 = icmp ult i32 %29, %30
  br i1 %31, label %32, label %.critedge.i

32:                                               ; preds = %26
  %33 = tail call ptr @abi_arg_new_direct_int_ext(ptr noundef nonnull %16) #7
  br label %x64_indirect_return_result.exit

.critedge.i:                                      ; preds = %26, %23
  %34 = tail call ptr @abi_arg_new_direct() #7
  br label %x64_indirect_return_result.exit

35:                                               ; preds = %1
  %36 = tail call ptr @x64_get_int_type_at_offset(ptr noundef %0, i32 noundef 0, ptr noundef %0, i32 noundef 0)
  %37 = load i32, ptr %2, align 4
  %38 = icmp eq i32 %37, 0
  br i1 %38, label %39, label %.critedge

39:                                               ; preds = %35
  %40 = load i32, ptr %0, align 8
  %41 = icmp eq i32 %40, 31
  br i1 %41, label %42, label %46

42:                                               ; preds = %39
  %43 = getelementptr inbounds i8, ptr %0, i64 8
  %44 = load ptr, ptr %43, align 8
  %45 = load i32, ptr %44, align 8
  br label %46

46:                                               ; preds = %42, %39
  %.0 = phi i32 [ %45, %42 ], [ %40, %39 ]
  %47 = add i32 %.0, -2
  %48 = icmp ult i32 %47, 11
  br i1 %48, label %49, label %.thread

49:                                               ; preds = %46
  %50 = getelementptr inbounds i8, ptr %0, i64 56
  %51 = load i32, ptr %50, align 8
  %52 = and i32 %51, 255
  %53 = load i32, ptr getelementptr inbounds (%struct.PlatformTarget, ptr @platform_target, i64 0, i32 33), align 8
  %54 = icmp ult i32 %52, %53
  br i1 %54, label %55, label %.thread

55:                                               ; preds = %49
  %56 = tail call ptr @abi_arg_new_direct_coerce_int_ext(ptr noundef nonnull %0) #7
  br label %x64_indirect_return_result.exit

57:                                               ; preds = %1
  %58 = tail call fastcc ptr @x64_get_sse_type_at_offset(ptr noundef %0, i32 noundef 0, ptr noundef %0, i32 noundef 0)
  %.pr.pre = load i32, ptr %2, align 4
  br label %.critedge

59:                                               ; preds = %1
  tail call void (ptr, ...) @error_exit(ptr noundef nonnull @.str, ptr noundef nonnull @.str.1, ptr noundef nonnull @__func__.x64_classify_return, ptr noundef nonnull @.str.2, i32 noundef 715) #8
  unreachable

.critedge:                                        ; preds = %57, %35, %5
  %60 = phi i32 [ %37, %35 ], [ %6, %5 ], [ %.pr.pre, %57 ]
  %.sroa.07.0 = phi ptr [ %36, %35 ], [ null, %5 ], [ %58, %57 ]
  switch i32 %60, label %.thread [
    i32 4, label %65
    i32 3, label %63
    i32 2, label %61
  ]

61:                                               ; preds = %.critedge
  %62 = tail call ptr @x64_get_int_type_at_offset(ptr noundef %0, i32 noundef 8, ptr noundef %0, i32 noundef 8)
  br label %67

63:                                               ; preds = %.critedge
  %64 = tail call fastcc ptr @x64_get_sse_type_at_offset(ptr noundef %0, i32 noundef 8, ptr noundef %0, i32 noundef 8)
  br label %67

65:                                               ; preds = %.critedge
  %66 = tail call fastcc ptr @x64_get_byte_vector_type(ptr noundef %0)
  br label %.thread

67:                                               ; preds = %63, %61
  %.sroa.03.0 = phi ptr [ %62, %61 ], [ %64, %63 ]
  %.not = icmp eq ptr %.sroa.03.0, null
  br i1 %.not, label %.thread, label %68

68:                                               ; preds = %67
  %69 = tail call i32 @abi_type_size(ptr %.sroa.07.0) #7
  %70 = tail call i32 @abi_type_abi_alignment(ptr nonnull %.sroa.03.0) #7
  %71 = tail call ptr @abi_arg_new_direct_pair(ptr %.sroa.07.0, ptr nonnull %.sroa.03.0) #7
  br label %x64_indirect_return_result.exit

.thread:                                          ; preds = %49, %46, %65, %.critedge, %67
  %.sroa.07.136 = phi ptr [ %.sroa.07.0, %67 ], [ %66, %65 ], [ %.sroa.07.0, %.critedge ], [ %36, %46 ], [ %36, %49 ]
  %72 = ptrtoint ptr %.sroa.07.136 to i64
  %73 = and i64 %72, 1
  %.not.i = icmp eq i64 %73, 0
  br i1 %.not.i, label %74, label %84

74:                                               ; preds = %.thread
  %75 = getelementptr inbounds i8, ptr %0, i64 8
  %76 = load ptr, ptr %75, align 8
  %77 = getelementptr inbounds i8, ptr %.sroa.07.136, i64 8
  %78 = load ptr, ptr %77, align 8
  %79 = icmp eq ptr %76, %78
  br i1 %79, label %80, label %82

80:                                               ; preds = %74
  %81 = tail call ptr @abi_arg_new_direct() #7
  br label %x64_indirect_return_result.exit

82:                                               ; preds = %74
  %83 = tail call ptr @abi_arg_new_direct_coerce_type(ptr noundef %78) #7
  br label %x64_indirect_return_result.exit

84:                                               ; preds = %.thread
  %85 = tail call ptr @abi_arg_new_direct_coerce_int() #7
  br label %x64_indirect_return_result.exit

x64_indirect_return_result.exit:                  ; preds = %.critedge.i, %32, %13, %84, %82, %80, %68, %55, %8
  %.031 = phi ptr [ %71, %68 ], [ %81, %80 ], [ %83, %82 ], [ %85, %84 ], [ %56, %55 ], [ %9, %8 ], [ %14, %13 ], [ %33, %32 ], [ %34, %.critedge.i ]
  ret ptr %.031
}